target datalayout = "e-m:e-p270:32:32-p271:32:32-p272:64:64-i64:64-f80:128-n8:16:32:64-S128"
target triple = "x86_64-pc-linux-gnu"

@.str = private unnamed_addr constant [4 x i8] c"%d\0A\00", align 1
@.str.1 = private unnamed_addr constant [4 x i8] c"NO\0A\00", align 1
@.str.2 = private unnamed_addr constant [3 x i8] c"%c\00", align 1
@.str.3 = private unnamed_addr constant [2 x i8] c"\0A\00", align 1

; Function Attrs: noinline nounwind uwtable
define dso_local i32 @main() #0 {
  %1 = alloca i32, align 4
  %2 = alloca i32, align 4
  %3 = alloca i32, align 4
  %4 = alloca i32, align 4
  %5 = alloca i32, align 4
  %6 = alloca i32, align 4
  %7 = alloca i32, align 4
  %8 = alloca [1000 x i8], align 16
  %9 = alloca [1000 x i32], align 16
  store i32 0, i32* %1, align 4
  store i32 0, i32* %3, align 4
  br label %10

10:                                               ; preds = %17, %0
  %11 = load i32, i32* %3, align 4
  %12 = icmp slt i32 %11, 1000
  br i1 %12, label %13, label %20

13:                                               ; preds = %10
  %14 = load i32, i32* %3, align 4
  %15 = sext i32 %14 to i64
  %16 = getelementptr inbounds [1000 x i32], [1000 x i32]* %9, i64 0, i64 %15
  store i32 1, i32* %16, align 4
  br label %17

17:                                               ; preds = %13
  %18 = load i32, i32* %3, align 4
  %19 = add nsw i32 %18, 1
  store i32 %19, i32* %3, align 4
  br label %10

20:                                               ; preds = %10
  %21 = call i32 (i8*, ...) @__isoc99_scanf(i8* getelementptr inbounds ([4 x i8], [4 x i8]* @.str, i64 0, i64 0), i32* %2)
  %22 = getelementptr inbounds [1000 x i8], [1000 x i8]* %8, i64 0, i64 0
  %23 = call i32 (i8*, ...) bitcast (i32 (...)* @gets to i32 (i8*, ...)*)(i8* %22)
  %24 = getelementptr inbounds [1000 x i8], [1000 x i8]* %8, i64 0, i64 0
  %25 = call i64 @strlen(i8* %24) #3
  %26 = trunc i64 %25 to i32
  store i32 %26, i32* %5, align 4
  store i32 0, i32* %3, align 4
  br label %27

27:                                               ; preds = %93, %20
  %28 = load i32, i32* %3, align 4
  %29 = load i32, i32* %5, align 4
  %30 = load i32, i32* %2, align 4
  %31 = sub nsw i32 %29, %30
  %32 = icmp sle i32 %28, %31
  br i1 %32, label %33, label %96

33:                                               ; preds = %27
  %34 = load i32, i32* %3, align 4
  %35 = sext i32 %34 to i64
  %36 = getelementptr inbounds [1000 x i32], [1000 x i32]* %9, i64 0, i64 %35
  %37 = load i32, i32* %36, align 4
  %38 = icmp ne i32 %37, 0
  br i1 %38, label %39, label %92

39:                                               ; preds = %33
  %40 = load i32, i32* %3, align 4
  %41 = add nsw i32 %40, 1
  store i32 %41, i32* %4, align 4
  br label %42

42:                                               ; preds = %88, %39
  %43 = load i32, i32* %4, align 4
  %44 = load i32, i32* %5, align 4
  %45 = load i32, i32* %2, align 4
  %46 = sub nsw i32 %44, %45
  %47 = icmp sle i32 %43, %46
  br i1 %47, label %48, label %91

48:                                               ; preds = %42
  store i32 0, i32* %6, align 4
  br label %49

49:                                               ; preds = %71, %48
  %50 = load i32, i32* %6, align 4
  %51 = load i32, i32* %2, align 4
  %52 = icmp slt i32 %50, %51
  br i1 %52, label %53, label %74

53:                                               ; preds = %49
  %54 = load i32, i32* %3, align 4
  %55 = load i32, i32* %6, align 4
  %56 = add nsw i32 %54, %55
  %57 = sext i32 %56 to i64
  %58 = getelementptr inbounds [1000 x i8], [1000 x i8]* %8, i64 0, i64 %57
  %59 = load i8, i8* %58, align 1
  %60 = sext i8 %59 to i32
  %61 = load i32, i32* %4, align 4
  %62 = load i32, i32* %6, align 4
  %63 = add nsw i32 %61, %62
  %64 = sext i32 %63 to i64
  %65 = getelementptr inbounds [1000 x i8], [1000 x i8]* %8, i64 0, i64 %64
  %66 = load i8, i8* %65, align 1
  %67 = sext i8 %66 to i32
  %68 = icmp ne i32 %60, %67
  br i1 %68, label %69, label %70

69:                                               ; preds = %53
  br label %74

70:                                               ; preds = %53
  br label %71

71:                                               ; preds = %70
  %72 = load i32, i32* %6, align 4
  %73 = add nsw i32 %72, 1
  store i32 %73, i32* %6, align 4
  br label %49

74:                                               ; preds = %69, %49
  %75 = load i32, i32* %6, align 4
  %76 = load i32, i32* %2, align 4
  %77 = icmp eq i32 %75, %76
  br i1 %77, label %78, label %87

78:                                               ; preds = %74
  %79 = load i32, i32* %4, align 4
  %80 = sext i32 %79 to i64
  %81 = getelementptr inbounds [1000 x i32], [1000 x i32]* %9, i64 0, i64 %80
  store i32 0, i32* %81, align 4
  %82 = load i32, i32* %3, align 4
  %83 = sext i32 %82 to i64
  %84 = getelementptr inbounds [1000 x i32], [1000 x i32]* %9, i64 0, i64 %83
  %85 = load i32, i32* %84, align 4
  %86 = add nsw i32 %85, 1
  store i32 %86, i32* %84, align 4
  br label %87

87:                                               ; preds = %78, %74
  br label %88

88:                                               ; preds = %87
  %89 = load i32, i32* %4, align 4
  %90 = add nsw i32 %89, 1
  store i32 %90, i32* %4, align 4
  br label %42

91:                                               ; preds = %42
  br label %92

92:                                               ; preds = %91, %33
  br label %93

93:                                               ; preds = %92
  %94 = load i32, i32* %3, align 4
  %95 = add nsw i32 %94, 1
  store i32 %95, i32* %3, align 4
  br label %27

96:                                               ; preds = %27
  store i32 1, i32* %7, align 4
  store i32 0, i32* %3, align 4
  br label %97

97:                                               ; preds = %116, %96
  %98 = load i32, i32* %3, align 4
  %99 = load i32, i32* %5, align 4
  %100 = load i32, i32* %2, align 4
  %101 = sub nsw i32 %99, %100
  %102 = icmp sle i32 %98, %101
  br i1 %102, label %103, label %119

103:                                              ; preds = %97
  %104 = load i32, i32* %3, align 4
  %105 = sext i32 %104 to i64
  %106 = getelementptr inbounds [1000 x i32], [1000 x i32]* %9, i64 0, i64 %105
  %107 = load i32, i32* %106, align 4
  %108 = load i32, i32* %7, align 4
  %109 = icmp sgt i32 %107, %108
  br i1 %109, label %110, label %115

110:                                              ; preds = %103
  %111 = load i32, i32* %3, align 4
  %112 = sext i32 %111 to i64
  %113 = getelementptr inbounds [1000 x i32], [1000 x i32]* %9, i64 0, i64 %112
  %114 = load i32, i32* %113, align 4
  store i32 %114, i32* %7, align 4
  br label %115

115:                                              ; preds = %110, %103
  br label %116

116:                                              ; preds = %115
  %117 = load i32, i32* %3, align 4
  %118 = add nsw i32 %117, 1
  store i32 %118, i32* %3, align 4
  br label %97

119:                                              ; preds = %97
  %120 = load i32, i32* %7, align 4
  %121 = icmp eq i32 %120, 1
  br i1 %121, label %122, label %124

122:                                              ; preds = %119
  %123 = call i32 (i8*, ...) @printf(i8* getelementptr inbounds ([4 x i8], [4 x i8]* @.str.1, i64 0, i64 0))
  store i32 0, i32* %1, align 4
  br label %164

124:                                              ; preds = %119
  %125 = load i32, i32* %7, align 4
  %126 = call i32 (i8*, ...) @printf(i8* getelementptr inbounds ([4 x i8], [4 x i8]* @.str, i64 0, i64 0), i32 %125)
  store i32 0, i32* %3, align 4
  br label %127

127:                                              ; preds = %160, %124
  %128 = load i32, i32* %3, align 4
  %129 = load i32, i32* %5, align 4
  %130 = load i32, i32* %2, align 4
  %131 = sub nsw i32 %129, %130
  %132 = icmp sle i32 %128, %131
  br i1 %132, label %133, label %163

133:                                              ; preds = %127
  %134 = load i32, i32* %3, align 4
  %135 = sext i32 %134 to i64
  %136 = getelementptr inbounds [1000 x i32], [1000 x i32]* %9, i64 0, i64 %135
  %137 = load i32, i32* %136, align 4
  %138 = load i32, i32* %7, align 4
  %139 = icmp eq i32 %137, %138
  br i1 %139, label %140, label %159

140:                                              ; preds = %133
  store i32 0, i32* %4, align 4
  br label %141

141:                                              ; preds = %154, %140
  %142 = load i32, i32* %4, align 4
  %143 = load i32, i32* %2, align 4
  %144 = icmp slt i32 %142, %143
  br i1 %144, label %145, label %157

145:                                              ; preds = %141
  %146 = load i32, i32* %3, align 4
  %147 = load i32, i32* %4, align 4
  %148 = add nsw i32 %146, %147
  %149 = sext i32 %148 to i64
  %150 = getelementptr inbounds [1000 x i8], [1000 x i8]* %8, i64 0, i64 %149
  %151 = load i8, i8* %150, align 1
  %152 = sext i8 %151 to i32
  %153 = call i32 (i8*, ...) @printf(i8* getelementptr inbounds ([3 x i8], [3 x i8]* @.str.2, i64 0, i64 0), i32 %152)
  br label %154

154:                                              ; preds = %145
  %155 = load i32, i32* %4, align 4
  %156 = add nsw i32 %155, 1
  store i32 %156, i32* %4, align 4
  br label %141

157:                                              ; preds = %141
  %158 = call i32 (i8*, ...) @printf(i8* getelementptr inbounds ([2 x i8], [2 x i8]* @.str.3, i64 0, i64 0))
  br label %159

159:                                              ; preds = %157, %133
  br label %160

160:                                              ; preds = %159
  %161 = load i32, i32* %3, align 4
  %162 = add nsw i32 %161, 1
  store i32 %162, i32* %3, align 4
  br label %127

163:                                              ; preds = %127
  store i32 0, i32* %1, align 4
  br label %164

164:                                              ; preds = %163, %122
  %165 = load i32, i32* %1, align 4
  ret i32 %165
}